target datalayout = "e-m:e-p270:32:32-p271:32:32-p272:64:64-i64:64-i128:128-f80:128-n8:16:32:64-S128"
target triple = "x86_64-pc-linux-gnu"

; Function Attrs: nounwind uwtable
define dso_local ptr @memmapchars(ptr noundef %0, i64 noundef %1, ptr noundef %2, ptr noundef %3, i64 noundef %4) #0 {
  %6 = alloca ptr, align 8
  %7 = alloca i64, align 8
  %8 = alloca ptr, align 8
  %9 = alloca ptr, align 8
  %10 = alloca i64, align 8
  %11 = alloca i64, align 8
  %12 = alloca i32, align 4
  %13 = alloca i64, align 8
  store ptr %0, ptr %6, align 8, !tbaa !5
  store i64 %1, ptr %7, align 8, !tbaa !29
  store ptr %2, ptr %8, align 8, !tbaa !5
  store ptr %3, ptr %9, align 8, !tbaa !5
  store i64 %4, ptr %10, align 8, !tbaa !29
  call void @llvm.lifetime.start.p0(i64 8, ptr %11) #13
  store i64 0, ptr %11, align 8, !tbaa !29
  br label %14

14:                                               ; preds = %51, %5
  %15 = load i64, ptr %11, align 8, !tbaa !29
  %16 = load i64, ptr %7, align 8, !tbaa !29
  %17 = icmp ult i64 %15, %16
  br i1 %17, label %19, label %18

18:                                               ; preds = %14
  store i32 2, ptr %12, align 4
  call void @llvm.lifetime.end.p0(i64 8, ptr %11) #13
  br label %54

19:                                               ; preds = %14
  call void @llvm.lifetime.start.p0(i64 8, ptr %13) #13
  store i64 0, ptr %13, align 8, !tbaa !29
  br label %20

20:                                               ; preds = %46, %19
  %21 = load i64, ptr %13, align 8, !tbaa !29
  %22 = load i64, ptr %10, align 8, !tbaa !29
  %23 = icmp ult i64 %21, %22
  br i1 %23, label %25, label %24

24:                                               ; preds = %20
  store i32 5, ptr %12, align 4
  br label %49

25:                                               ; preds = %20
  %26 = load ptr, ptr %6, align 8, !tbaa !5
  %27 = load i64, ptr %11, align 8, !tbaa !29
  %28 = getelementptr inbounds nuw i8, ptr %26, i64 %27
  %29 = load i8, ptr %28, align 1, !tbaa !12
  %30 = sext i8 %29 to i32
  %31 = load ptr, ptr %8, align 8, !tbaa !5
  %32 = load i64, ptr %13, align 8, !tbaa !29
  %33 = getelementptr inbounds nuw i8, ptr %31, i64 %32
  %34 = load i8, ptr %33, align 1, !tbaa !12
  %35 = sext i8 %34 to i32
  %36 = icmp eq i32 %30, %35
  br i1 %36, label %37, label %45

37:                                               ; preds = %25
  %38 = load ptr, ptr %9, align 8, !tbaa !5
  %39 = load i64, ptr %13, align 8, !tbaa !29
  %40 = getelementptr inbounds nuw i8, ptr %38, i64 %39
  %41 = load i8, ptr %40, align 1, !tbaa !12
  %42 = load ptr, ptr %6, align 8, !tbaa !5
  %43 = load i64, ptr %11, align 8, !tbaa !29
  %44 = getelementptr inbounds nuw i8, ptr %42, i64 %43
  store i8 %41, ptr %44, align 1, !tbaa !12
  store i32 5, ptr %12, align 4
  br label %49

45:                                               ; preds = %25
  br label %46

46:                                               ; preds = %45
  %47 = load i64, ptr %13, align 8, !tbaa !29
  %48 = add i64 %47, 1
  store i64 %48, ptr %13, align 8, !tbaa !29
  br label %20, !llvm.loop !35

49:                                               ; preds = %37, %24
  call void @llvm.lifetime.end.p0(i64 8, ptr %13) #13
  br label %50

50:                                               ; preds = %49
  br label %51

51:                                               ; preds = %50
  %52 = load i64, ptr %11, align 8, !tbaa !29
  %53 = add i64 %52, 1
  store i64 %53, ptr %11, align 8, !tbaa !29
  br label %14, !llvm.loop !36

54:                                               ; preds = %18
  %55 = load ptr, ptr %6, align 8, !tbaa !5
  ret ptr %55
}