; Function Attrs: nofree norecurse nosync nounwind memory(argmem: readwrite) uwtable
define dso_local noundef ptr @memmapchars(ptr noundef returned captures(ret: address, provenance) %0, i64 noundef %1, ptr noundef readonly captures(none) %2, ptr noundef readonly captures(none) %3, i64 noundef %4) local_unnamed_addr #12 {
  %.not = icmp eq i64 %1, 0
  %.not19 = icmp eq i64 %4, 0
  %or.cond = or i1 %.not, %.not19
  br i1 %or.cond, label %._crit_edge, label %.preheader.us

.preheader.us:                                    ; preds = %5, %..loopexit_crit_edge.us
  %.01417.us = phi i64 [ %17, %..loopexit_crit_edge.us ], [ 0, %5 ]
  %6 = getelementptr inbounds nuw i8, ptr %0, i64 %.01417.us
  %7 = load i8, ptr %6, align 1, !tbaa !9
  br label %8

8:                                                ; preds = %.preheader.us, %12
  %.016.us = phi i64 [ 0, %.preheader.us ], [ %13, %12 ]
  %9 = getelementptr inbounds nuw i8, ptr %2, i64 %.016.us
  %10 = load i8, ptr %9, align 1, !tbaa !9
  %11 = icmp eq i8 %7, %10
  br i1 %11, label %14, label %12

12:                                               ; preds = %8
  %13 = add nuw i64 %.016.us, 1
  %exitcond.not = icmp eq i64 %13, %4
  br i1 %exitcond.not, label %..loopexit_crit_edge.us, label %8, !llvm.loop !31

14:                                               ; preds = %8
  %15 = getelementptr inbounds nuw i8, ptr %3, i64 %.016.us
  %16 = load i8, ptr %15, align 1, !tbaa !9
  store i8 %16, ptr %6, align 1, !tbaa !9
  br label %..loopexit_crit_edge.us

..loopexit_crit_edge.us:                          ; preds = %12, %14
  %17 = add nuw i64 %.01417.us, 1
  %exitcond22.not = icmp eq i64 %17, %1
  br i1 %exitcond22.not, label %._crit_edge, label %.preheader.us, !llvm.loop !32

._crit_edge:                                      ; preds = %..loopexit_crit_edge.us, %5
  ret ptr %0
}